(lp0
S'poi'
p1
aS'salary'
p2
aS'bonus'
p3
aS'from_poi_ratio'
p4
aS'to_poi_ratio'
p5
aS'deferral_payments'
p6
aS'total_payments'
p7
aS'loan_advances'
p8
aS'deferred_income'
p9
aS'total_stock_value'
p10
aS'expenses'
p11
aS'exercised_stock_options'
p12
aS'long_term_incentive'
p13
aS'shared_rec_ratio'
p14
aS'restricted_stock'
p15
a.